; ModuleID = '9/112.c'
source_filename = "9/112.c"
target datalayout = "e-m:e-p270:32:32-p271:32:32-p272:64:64-i64:64-f80:128-n8:16:32:64-S128"
target triple = "x86_64-pc-linux-gnu"

@.str = private unnamed_addr constant [3 x i8] c"%d\00", align 1
@.str.1 = private unnamed_addr constant [3 x i8] c"%s\00", align 1

; Function Attrs: noinline nounwind uwtable
define dso_local void @main() #0 {
  %1 = alloca i32, align 4
  %2 = alloca [100 x i32], align 16
  %3 = alloca i32, align 4
  %4 = alloca [100 x i32], align 16
  %5 = alloca [100 x i32], align 16
  %6 = alloca [100 x [10 x i8]], align 16
  %7 = alloca [100 x [10 x i8]], align 16
  %8 = alloca [100 x [10 x i8]], align 16
  %9 = alloca [10 x i8], align 1
  %10 = alloca i32, align 4
  %11 = alloca i32, align 4
  %12 = alloca i32, align 4
  %13 = alloca i32, align 4
  %14 = alloca i32, align 4
  %15 = call i32 (i8*, ...) @__isoc99_scanf(i8* getelementptr inbounds ([3 x i8], [3 x i8]* @.str, i64 0, i64 0), i32* %1)
  store i32 0, i32* %10, align 4
  br label %16

16:                                               ; preds = %30, %0
  %17 = load i32, i32* %10, align 4
  %18 = load i32, i32* %1, align 4
  %19 = icmp slt i32 %17, %18
  br i1 %19, label %20, label %33

20:                                               ; preds = %16
  %21 = load i32, i32* %10, align 4
  %22 = sext i32 %21 to i64
  %23 = getelementptr inbounds [100 x [10 x i8]], [100 x [10 x i8]]* %6, i64 0, i64 %22
  %24 = getelementptr inbounds [10 x i8], [10 x i8]* %23, i64 0, i64 0
  %25 = call i32 (i8*, ...) @__isoc99_scanf(i8* getelementptr inbounds ([3 x i8], [3 x i8]* @.str.1, i64 0, i64 0), i8* %24)
  %26 = load i32, i32* %10, align 4
  %27 = sext i32 %26 to i64
  %28 = getelementptr inbounds [100 x i32], [100 x i32]* %2, i64 0, i64 %27
  %29 = call i32 (i8*, ...) @__isoc99_scanf(i8* getelementptr inbounds ([3 x i8], [3 x i8]* @.str, i64 0, i64 0), i32* %28)
  br label %30

30:                                               ; preds = %20
  %31 = load i32, i32* %10, align 4
  %32 = add nsw i32 %31, 1
  store i32 %32, i32* %10, align 4
  br label %16

33:                                               ; preds = %16
  store i32 0, i32* %13, align 4
  store i32 0, i32* %14, align 4
  store i32 0, i32* %12, align 4
  br label %34

34:                                               ; preds = %83, %33
  %35 = load i32, i32* %12, align 4
  %36 = load i32, i32* %1, align 4
  %37 = icmp slt i32 %35, %36
  br i1 %37, label %38, label %86

38:                                               ; preds = %34
  %39 = load i32, i32* %12, align 4
  %40 = sext i32 %39 to i64
  %41 = getelementptr inbounds [100 x i32], [100 x i32]* %2, i64 0, i64 %40
  %42 = load i32, i32* %41, align 4
  %43 = icmp sge i32 %42, 60
  br i1 %43, label %44, label %63

44:                                               ; preds = %38
  %45 = load i32, i32* %12, align 4
  %46 = sext i32 %45 to i64
  %47 = getelementptr inbounds [100 x i32], [100 x i32]* %2, i64 0, i64 %46
  %48 = load i32, i32* %47, align 4
  %49 = load i32, i32* %13, align 4
  %50 = sext i32 %49 to i64
  %51 = getelementptr inbounds [100 x i32], [100 x i32]* %4, i64 0, i64 %50
  store i32 %48, i32* %51, align 4
  %52 = load i32, i32* %13, align 4
  %53 = sext i32 %52 to i64
  %54 = getelementptr inbounds [100 x [10 x i8]], [100 x [10 x i8]]* %7, i64 0, i64 %53
  %55 = getelementptr inbounds [10 x i8], [10 x i8]* %54, i64 0, i64 0
  %56 = load i32, i32* %12, align 4
  %57 = sext i32 %56 to i64
  %58 = getelementptr inbounds [100 x [10 x i8]], [100 x [10 x i8]]* %6, i64 0, i64 %57
  %59 = getelementptr inbounds [10 x i8], [10 x i8]* %58, i64 0, i64 0
  %60 = call i8* @strcpy(i8* %55, i8* %59) #3
  %61 = load i32, i32* %13, align 4
  %62 = add nsw i32 %61, 1
  store i32 %62, i32* %13, align 4
  br label %82

63:                                               ; preds = %38
  %64 = load i32, i32* %12, align 4
  %65 = sext i32 %64 to i64
  %66 = getelementptr inbounds [100 x i32], [100 x i32]* %2, i64 0, i64 %65
  %67 = load i32, i32* %66, align 4
  %68 = load i32, i32* %14, align 4
  %69 = sext i32 %68 to i64
  %70 = getelementptr inbounds [100 x i32], [100 x i32]* %5, i64 0, i64 %69
  store i32 %67, i32* %70, align 4
  %71 = load i32, i32* %14, align 4
  %72 = sext i32 %71 to i64
  %73 = getelementptr inbounds [100 x [10 x i8]], [100 x [10 x i8]]* %8, i64 0, i64 %72
  %74 = getelementptr inbounds [10 x i8], [10 x i8]* %73, i64 0, i64 0
  %75 = load i32, i32* %12, align 4
  %76 = sext i32 %75 to i64
  %77 = getelementptr inbounds [100 x [10 x i8]], [100 x [10 x i8]]* %6, i64 0, i64 %76
  %78 = getelementptr inbounds [10 x i8], [10 x i8]* %77, i64 0, i64 0
  %79 = call i8* @strcpy(i8* %74, i8* %78) #3
  %80 = load i32, i32* %14, align 4
  %81 = add nsw i32 %80, 1
  store i32 %81, i32* %14, align 4
  br label %82

82:                                               ; preds = %63, %44
  br label %83

83:                                               ; preds = %82
  %84 = load i32, i32* %12, align 4
  %85 = add nsw i32 %84, 1
  store i32 %85, i32* %12, align 4
  br label %34

86:                                               ; preds = %34
  store i32 0, i32* %11, align 4
  br label %87

87:                                               ; preds = %157, %86
  %88 = load i32, i32* %11, align 4
  %89 = load i32, i32* %13, align 4
  %90 = sub nsw i32 %89, 1
  %91 = icmp slt i32 %88, %90
  br i1 %91, label %92, label %160

92:                                               ; preds = %87
  store i32 0, i32* %10, align 4
  br label %93

93:                                               ; preds = %153, %92
  %94 = load i32, i32* %10, align 4
  %95 = load i32, i32* %13, align 4
  %96 = sub nsw i32 %95, 1
  %97 = load i32, i32* %11, align 4
  %98 = sub nsw i32 %96, %97
  %99 = icmp slt i32 %94, %98
  br i1 %99, label %100, label %156

100:                                              ; preds = %93
  %101 = load i32, i32* %10, align 4
  %102 = sext i32 %101 to i64
  %103 = getelementptr inbounds [100 x i32], [100 x i32]* %4, i64 0, i64 %102
  %104 = load i32, i32* %103, align 4
  %105 = load i32, i32* %10, align 4
  %106 = add nsw i32 %105, 1
  %107 = sext i32 %106 to i64
  %108 = getelementptr inbounds [100 x i32], [100 x i32]* %4, i64 0, i64 %107
  %109 = load i32, i32* %108, align 4
  %110 = icmp slt i32 %104, %109
  br i1 %110, label %111, label %152

111:                                              ; preds = %100
  %112 = load i32, i32* %10, align 4
  %113 = sext i32 %112 to i64
  %114 = getelementptr inbounds [100 x i32], [100 x i32]* %4, i64 0, i64 %113
  %115 = load i32, i32* %114, align 4
  store i32 %115, i32* %3, align 4
  %116 = load i32, i32* %10, align 4
  %117 = add nsw i32 %116, 1
  %118 = sext i32 %117 to i64
  %119 = getelementptr inbounds [100 x i32], [100 x i32]* %4, i64 0, i64 %118
  %120 = load i32, i32* %119, align 4
  %121 = load i32, i32* %10, align 4
  %122 = sext i32 %121 to i64
  %123 = getelementptr inbounds [100 x i32], [100 x i32]* %4, i64 0, i64 %122
  store i32 %120, i32* %123, align 4
  %124 = load i32, i32* %3, align 4
  %125 = load i32, i32* %10, align 4
  %126 = add nsw i32 %125, 1
  %127 = sext i32 %126 to i64
  %128 = getelementptr inbounds [100 x i32], [100 x i32]* %4, i64 0, i64 %127
  store i32 %124, i32* %128, align 4
  %129 = getelementptr inbounds [10 x i8], [10 x i8]* %9, i64 0, i64 0
  %130 = load i32, i32* %10, align 4
  %131 = sext i32 %130 to i64
  %132 = getelementptr inbounds [100 x [10 x i8]], [100 x [10 x i8]]* %7, i64 0, i64 %131
  %133 = getelementptr inbounds [10 x i8], [10 x i8]* %132, i64 0, i64 0
  %134 = call i8* @strcpy(i8* %129, i8* %133) #3
  %135 = load i32, i32* %10, align 4
  %136 = sext i32 %135 to i64
  %137 = getelementptr inbounds [100 x [10 x i8]], [100 x [10 x i8]]* %7, i64 0, i64 %136
  %138 = getelementptr inbounds [10 x i8], [10 x i8]* %137, i64 0, i64 0
  %139 = load i32, i32* %10, align 4
  %140 = add nsw i32 %139, 1
  %141 = sext i32 %140 to i64
  %142 = getelementptr inbounds [100 x [10 x i8]], [100 x [10 x i8]]* %7, i64 0, i64 %141
  %143 = getelementptr inbounds [10 x i8], [10 x i8]* %142, i64 0, i64 0
  %144 = call i8* @strcpy(i8* %138, i8* %143) #3
  %145 = load i32, i32* %10, align 4
  %146 = add nsw i32 %145, 1
  %147 = sext i32 %146 to i64
  %148 = getelementptr inbounds [100 x [10 x i8]], [100 x [10 x i8]]* %7, i64 0, i64 %147
  %149 = getelementptr inbounds [10 x i8], [10 x i8]* %148, i64 0, i64 0
  %150 = getelementptr inbounds [10 x i8], [10 x i8]* %9, i64 0, i64 0
  %151 = call i8* @strcpy(i8* %149, i8* %150) #3
  br label %152

152:                                              ; preds = %111, %100
  br label %153

153:                                              ; preds = %152
  %154 = load i32, i32* %10, align 4
  %155 = add nsw i32 %154, 1
  store i32 %155, i32* %10, align 4
  br label %93

156:                                              ; preds = %93
  br label %157

157:                                              ; preds = %156
  %158 = load i32, i32* %11, align 4
  %159 = add nsw i32 %158, 1
  store i32 %159, i32* %11, align 4
  br label %87

160:                                              ; preds = %87
  store i32 0, i32* %10, align 4
  br label %161

161:                                              ; preds = %171, %160
  %162 = load i32, i32* %10, align 4
  %163 = load i32, i32* %13, align 4
  %164 = icmp slt i32 %162, %163
  br i1 %164, label %165, label %174

165:                                              ; preds = %161
  %166 = load i32, i32* %10, align 4
  %167 = sext i32 %166 to i64
  %168 = getelementptr inbounds [100 x [10 x i8]], [100 x [10 x i8]]* %7, i64 0, i64 %167
  %169 = getelementptr inbounds [10 x i8], [10 x i8]* %168, i64 0, i64 0
  %170 = call i32 @puts(i8* %169)
  br label %171

171:                                              ; preds = %165
  %172 = load i32, i32* %10, align 4
  %173 = add nsw i32 %172, 1
  store i32 %173, i32* %10, align 4
  br label %161

174:                                              ; preds = %161
  store i32 0, i32* %10, align 4
  br label %175

175:                                              ; preds = %185, %174
  %176 = load i32, i32* %10, align 4
  %177 = load i32, i32* %14, align 4
  %178 = icmp slt i32 %176, %177
  br i1 %178, label %179, label %188

179:                                              ; preds = %175
  %180 = load i32, i32* %10, align 4
  %181 = sext i32 %180 to i64
  %182 = getelementptr inbounds [100 x [10 x i8]], [100 x [10 x i8]]* %8, i64 0, i64 %181
  %183 = getelementptr inbounds [10 x i8], [10 x i8]* %182, i64 0, i64 0
  %184 = call i32 @puts(i8* %183)
  br label %185

185:                                              ; preds = %179
  %186 = load i32, i32* %10, align 4
  %187 = add nsw i32 %186, 1
  store i32 %187, i32* %10, align 4
  br label %175

188:                                              ; preds = %175
  ret void
}

declare dso_local i32 @__isoc99_scanf(i8*, ...) #1

; Function Attrs: nounwind
declare dso_local i8* @strcpy(i8*, i8*) #2

declare dso_local i32 @puts(i8*) #1


!llvm.module.flags = !{!0}
!llvm.ident = !{!1}

!0 = !{i32 1, !"wchar_size", i32 4}
!1 = !{!"clang version 10.0.0-4ubuntu1 "}
